target datalayout = "e-m:e-p270:32:32-p271:32:32-p272:64:64-i64:64-i128:128-f80:128-n8:16:32:64-S128"
target triple = "x86_64-pc-linux-gnu"

@output_sq = internal global i32 0, align 4
@show_type = internal global i32 0, align 4
@.str.117 = private unnamed_addr constant [4 x i8] c"'\\'\00", align 1
@stdout = external global ptr, align 8

; Function Attrs: nounwind uwtable
define internal void @show(ptr noundef %0) #0 {
  %2 = alloca ptr, align 8
  %3 = alloca i32, align 4
  %4 = alloca i32, align 4
  store ptr %0, ptr %2, align 8, !tbaa !11
  %5 = load i32, ptr @output_sq, align 4, !tbaa !4
  %6 = icmp ne i32 %5, 0
  br i1 %6, label %7, label %30

7:                                                ; preds = %1
  call void @llvm.lifetime.start.p0(i64 4, ptr %3) #11
  store i32 39, ptr %3, align 4, !tbaa !4
  call void @llvm.lifetime.start.p0(i64 4, ptr %4) #11
  %8 = load i32, ptr %3, align 4, !tbaa !4
  %9 = call i32 @putchar(i32 noundef %8)
  br label %10

10:                                               ; preds = %23, %7
  %11 = load ptr, ptr %2, align 8, !tbaa !11
  %12 = getelementptr inbounds nuw i8, ptr %11, i32 1
  store ptr %12, ptr %2, align 8, !tbaa !11
  %13 = load i8, ptr %11, align 1, !tbaa !39
  %14 = sext i8 %13 to i32
  store i32 %14, ptr %4, align 4, !tbaa !4
  %15 = icmp ne i32 %14, 0
  br i1 %15, label %16, label %26

16:                                               ; preds = %10
  %17 = load i32, ptr %4, align 4, !tbaa !4
  %18 = load i32, ptr %3, align 4, !tbaa !4
  %19 = icmp eq i32 %17, %18
  br i1 %19, label %20, label %23

20:                                               ; preds = %16
  %21 = load ptr, ptr @stdout, align 8, !tbaa !89
  %22 = call i32 @fputs(ptr noundef @.str.117, ptr noundef %21)
  br label %23

23:                                               ; preds = %20, %16
  %24 = load i32, ptr %4, align 4, !tbaa !4
  %25 = call i32 @putchar(i32 noundef %24)
  br label %10, !llvm.loop !101

26:                                               ; preds = %10
  %27 = load i32, ptr %3, align 4, !tbaa !4
  %28 = call i32 @putchar(i32 noundef %27)
  %29 = call i32 @putchar(i32 noundef 32)
  call void @llvm.lifetime.end.p0(i64 4, ptr %4) #11
  call void @llvm.lifetime.end.p0(i64 4, ptr %3) #11
  br label %33

30:                                               ; preds = %1
  %31 = load ptr, ptr %2, align 8, !tbaa !11
  %32 = call i32 @puts(ptr noundef %31)
  br label %33

33:                                               ; preds = %30, %26
  ret void
}

; Function Attrs: inlinehint nounwind uwtable
define available_externally i32 @putchar(i32 noundef %0) #6 {
  %2 = alloca i32, align 4
  store i32 %0, ptr %2, align 4, !tbaa !4
  %3 = load i32, ptr %2, align 4, !tbaa !4
  %4 = load ptr, ptr @stdout, align 8, !tbaa !89
  %5 = call i32 @putc(i32 noundef %3, ptr noundef %4)
  ret i32 %5
}

; Function Attrs: nounwind uwtable
define internal void @show_with_type(i32 noundef %0, ptr noundef %1) #0 {
  %3 = alloca i32, align 4
  %4 = alloca ptr, align 8
  store i32 %0, ptr %3, align 4, !tbaa !4
  store ptr %1, ptr %4, align 8, !tbaa !11
  %5 = load i32, ptr %3, align 4, !tbaa !4
  %6 = load i32, ptr @show_type, align 4, !tbaa !4
  %7 = icmp ne i32 %5, %6
  br i1 %7, label %8, label %10

8:                                                ; preds = %2
  %9 = call i32 @putchar(i32 noundef 94)
  br label %10

10:                                               ; preds = %8, %2
  %11 = load ptr, ptr %4, align 8, !tbaa !11
  call void @show(ptr noundef %11)
  ret void
}