; Function Attrs: nofree nounwind uwtable
define internal fastcc void @show_with_type(i32 noundef range(i32 0, 2) %0, ptr noundef readonly captures(none) %1) unnamed_addr #11 {
  %3 = load i32, ptr @show_type, align 4, !tbaa !9
  %.not = icmp eq i32 %0, %3
  br i1 %.not, label %7, label %4

4:                                                ; preds = %2
  %5 = load ptr, ptr @stdout, align 8, !tbaa !25
  %6 = tail call i32 @putc(i32 noundef 94, ptr noundef %5)
  br label %7

7:                                                ; preds = %4, %2
  %.b.i = load i1, ptr @output_sq, align 4
  br i1 %.b.i, label %.preheader, label %20

.preheader:                                       ; preds = %7, %.preheader.backedge
  %.sink.sink.i = phi i32 [ %.sink.sink.i.be, %.preheader.backedge ], [ 39, %7 ]
  %.0.i = phi ptr [ %10, %.preheader.backedge ], [ %1, %7 ]
  %8 = load ptr, ptr @stdout, align 8, !tbaa !25
  %9 = tail call i32 @putc(i32 noundef %.sink.sink.i, ptr noundef %8)
  %10 = getelementptr inbounds nuw i8, ptr %.0.i, i64 1
  %11 = load i8, ptr %.0.i, align 1, !tbaa !24
  switch i8 %11, label %.split.i [
    i8 0, label %15
    i8 39, label %.split7.i
  ]

.split.i:                                         ; preds = %.preheader
  %12 = sext i8 %11 to i32
  br label %.preheader.backedge

.split7.i:                                        ; preds = %.preheader
  %13 = load ptr, ptr @stdout, align 8, !tbaa !25
  %14 = tail call i64 @fwrite(ptr nonnull @.str.117, i64 3, i64 1, ptr %13)
  br label %.preheader.backedge

.preheader.backedge:                              ; preds = %.split7.i, %.split.i
  %.sink.sink.i.be = phi i32 [ %12, %.split.i ], [ 39, %.split7.i ]
  br label %.preheader, !llvm.loop !61

15:                                               ; preds = %.preheader
  %16 = load ptr, ptr @stdout, align 8, !tbaa !25
  %17 = tail call i32 @putc(i32 noundef 39, ptr noundef %16)
  %18 = load ptr, ptr @stdout, align 8, !tbaa !25
  %19 = tail call i32 @putc(i32 noundef 32, ptr noundef %18)
  br label %show.exit

20:                                               ; preds = %7
  %21 = tail call i32 @puts(ptr noundef nonnull readonly dereferenceable(1) %1)
  br label %show.exit

show.exit:                                        ; preds = %15, %20
  ret void
}